; Function Attrs: mustprogress nounwind uwtable
define void @_ZN2cv11VideoWriterD2Ev(ptr noundef nonnull align 8 captures(none) dereferenceable(40) initializes((0, 8), (24, 32)) %0) unnamed_addr #10 align 2 personality ptr @__gxx_personality_v0 {
  store ptr getelementptr inbounds nuw inrange(-16, 80) (i8, ptr @_ZTVN2cv11VideoWriterE, i64 16), ptr %0, align 8, !tbaa !10
  %2 = getelementptr inbounds nuw i8, ptr %0, i64 24
  store ptr null, ptr %2, align 8, !tbaa !319
  %3 = getelementptr inbounds nuw i8, ptr %0, i64 32
  %4 = load ptr, ptr %3, align 8, !tbaa !16
  store ptr null, ptr %3, align 8, !tbaa !16
  %.not.i.i.i.i.i = icmp eq ptr %4, null
  br i1 %.not.i.i.i.i.i, label %_ZNSt12__shared_ptrIN2cv12IVideoWriterELN9__gnu_cxx12_Lock_policyE2EED2Ev.exit, label %5

5:                                                ; preds = %1
  %6 = getelementptr inbounds nuw i8, ptr %4, i64 8
  %7 = load atomic i64, ptr %6 acquire, align 8
  %8 = icmp eq i64 %7, 4294967297
  %9 = trunc i64 %7 to i32
  br i1 %8, label %10, label %18

10:                                               ; preds = %5
  store i32 0, ptr %6, align 8, !tbaa !19
  %11 = getelementptr inbounds nuw i8, ptr %4, i64 12
  store i32 0, ptr %11, align 4, !tbaa !21
  %12 = load ptr, ptr %4, align 8, !tbaa !10
  %13 = getelementptr inbounds nuw i8, ptr %12, i64 16
  %14 = load ptr, ptr %13, align 8
  tail call void %14(ptr noundef nonnull align 8 dereferenceable(16) %4) #27
  %15 = load ptr, ptr %4, align 8, !tbaa !10
  %16 = getelementptr inbounds nuw i8, ptr %15, i64 24
  %17 = load ptr, ptr %16, align 8
  tail call void %17(ptr noundef nonnull align 8 dereferenceable(16) %4) #27
  br label %_ZN2cv11VideoWriter7releaseEv.exit

18:                                               ; preds = %5
  %19 = load i8, ptr @__libc_single_threaded, align 1, !tbaa !22
  %.not.i.i.i.i.i.i = icmp eq i8 %19, 0
  br i1 %.not.i.i.i.i.i.i, label %22, label %20

20:                                               ; preds = %18
  %21 = add nsw i32 %9, -1
  store i32 %21, ptr %6, align 4, !tbaa !23
  br label %_ZN9__gnu_cxx27__exchange_and_add_dispatchEPii.exit.i.i.i.i.i.i

22:                                               ; preds = %18
  %23 = atomicrmw volatile add ptr %6, i32 -1 acq_rel, align 4
  br label %_ZN9__gnu_cxx27__exchange_and_add_dispatchEPii.exit.i.i.i.i.i.i

_ZN9__gnu_cxx27__exchange_and_add_dispatchEPii.exit.i.i.i.i.i.i: ; preds = %22, %20
  %.0.i.i.i.i.i.i.i = phi i32 [ %9, %20 ], [ %23, %22 ]
  %24 = icmp eq i32 %.0.i.i.i.i.i.i.i, 1
  br i1 %24, label %25, label %_ZN2cv11VideoWriter7releaseEv.exit, !prof !24

25:                                               ; preds = %_ZN9__gnu_cxx27__exchange_and_add_dispatchEPii.exit.i.i.i.i.i.i
  tail call void @_ZNSt16_Sp_counted_baseILN9__gnu_cxx12_Lock_policyE2EE24_M_release_last_use_coldEv(ptr noundef nonnull align 8 dereferenceable(16) %4) #27
  br label %_ZN2cv11VideoWriter7releaseEv.exit

_ZN2cv11VideoWriter7releaseEv.exit:               ; preds = %25, %_ZN9__gnu_cxx27__exchange_and_add_dispatchEPii.exit.i.i.i.i.i.i, %10
  %.pr = load ptr, ptr %3, align 8, !tbaa !16
  %.not.i.i = icmp eq ptr %.pr, null
  br i1 %.not.i.i, label %_ZNSt12__shared_ptrIN2cv12IVideoWriterELN9__gnu_cxx12_Lock_policyE2EED2Ev.exit, label %26

26:                                               ; preds = %_ZN2cv11VideoWriter7releaseEv.exit
  %27 = getelementptr inbounds nuw i8, ptr %.pr, i64 8
  %28 = load atomic i64, ptr %27 acquire, align 8
  %29 = icmp eq i64 %28, 4294967297
  %30 = trunc i64 %28 to i32
  br i1 %29, label %31, label %39

31:                                               ; preds = %26
  store i32 0, ptr %27, align 8, !tbaa !19
  %32 = getelementptr inbounds nuw i8, ptr %.pr, i64 12
  store i32 0, ptr %32, align 4, !tbaa !21
  %33 = load ptr, ptr %.pr, align 8, !tbaa !10
  %34 = getelementptr inbounds nuw i8, ptr %33, i64 16
  %35 = load ptr, ptr %34, align 8
  tail call void %35(ptr noundef nonnull align 8 dereferenceable(16) %.pr) #27
  %36 = load ptr, ptr %.pr, align 8, !tbaa !10
  %37 = getelementptr inbounds nuw i8, ptr %36, i64 24
  %38 = load ptr, ptr %37, align 8
  tail call void %38(ptr noundef nonnull align 8 dereferenceable(16) %.pr) #27
  br label %_ZNSt12__shared_ptrIN2cv12IVideoWriterELN9__gnu_cxx12_Lock_policyE2EED2Ev.exit

39:                                               ; preds = %26
  %40 = load i8, ptr @__libc_single_threaded, align 1, !tbaa !22
  %.not.i.i.i = icmp eq i8 %40, 0
  br i1 %.not.i.i.i, label %43, label %41

41:                                               ; preds = %39
  %42 = add nsw i32 %30, -1
  store i32 %42, ptr %27, align 4, !tbaa !23
  br label %_ZN9__gnu_cxx27__exchange_and_add_dispatchEPii.exit.i.i.i

43:                                               ; preds = %39
  %44 = atomicrmw volatile add ptr %27, i32 -1 acq_rel, align 4
  br label %_ZN9__gnu_cxx27__exchange_and_add_dispatchEPii.exit.i.i.i

_ZN9__gnu_cxx27__exchange_and_add_dispatchEPii.exit.i.i.i: ; preds = %43, %41
  %.0.i.i.i.i = phi i32 [ %30, %41 ], [ %44, %43 ]
  %45 = icmp eq i32 %.0.i.i.i.i, 1
  br i1 %45, label %46, label %_ZNSt12__shared_ptrIN2cv12IVideoWriterELN9__gnu_cxx12_Lock_policyE2EED2Ev.exit, !prof !24

46:                                               ; preds = %_ZN9__gnu_cxx27__exchange_and_add_dispatchEPii.exit.i.i.i
  tail call void @_ZNSt16_Sp_counted_baseILN9__gnu_cxx12_Lock_policyE2EE24_M_release_last_use_coldEv(ptr noundef nonnull align 8 dereferenceable(16) %.pr) #27
  br label %_ZNSt12__shared_ptrIN2cv12IVideoWriterELN9__gnu_cxx12_Lock_policyE2EED2Ev.exit

_ZNSt12__shared_ptrIN2cv12IVideoWriterELN9__gnu_cxx12_Lock_policyE2EED2Ev.exit: ; preds = %1, %_ZN2cv11VideoWriter7releaseEv.exit, %31, %_ZN9__gnu_cxx27__exchange_and_add_dispatchEPii.exit.i.i.i, %46
  %47 = getelementptr inbounds nuw i8, ptr %0, i64 16
  %48 = load ptr, ptr %47, align 8, !tbaa !16
  %.not.i.i1 = icmp eq ptr %48, null
  br i1 %.not.i.i1, label %_ZNSt12__shared_ptrI13CvVideoWriterLN9__gnu_cxx12_Lock_policyE2EED2Ev.exit, label %49

49:                                               ; preds = %_ZNSt12__shared_ptrIN2cv12IVideoWriterELN9__gnu_cxx12_Lock_policyE2EED2Ev.exit
  %50 = getelementptr inbounds nuw i8, ptr %48, i64 8
  %51 = load atomic i64, ptr %50 acquire, align 8
  %52 = icmp eq i64 %51, 4294967297
  %53 = trunc i64 %51 to i32
  br i1 %52, label %54, label %62

54:                                               ; preds = %49
  store i32 0, ptr %50, align 8, !tbaa !19
  %55 = getelementptr inbounds nuw i8, ptr %48, i64 12
  store i32 0, ptr %55, align 4, !tbaa !21
  %56 = load ptr, ptr %48, align 8, !tbaa !10
  %57 = getelementptr inbounds nuw i8, ptr %56, i64 16
  %58 = load ptr, ptr %57, align 8
  tail call void %58(ptr noundef nonnull align 8 dereferenceable(16) %48) #27
  %59 = load ptr, ptr %48, align 8, !tbaa !10
  %60 = getelementptr inbounds nuw i8, ptr %59, i64 24
  %61 = load ptr, ptr %60, align 8
  tail call void %61(ptr noundef nonnull align 8 dereferenceable(16) %48) #27
  br label %_ZNSt12__shared_ptrI13CvVideoWriterLN9__gnu_cxx12_Lock_policyE2EED2Ev.exit

62:                                               ; preds = %49
  %63 = load i8, ptr @__libc_single_threaded, align 1, !tbaa !22
  %.not.i.i.i2 = icmp eq i8 %63, 0
  br i1 %.not.i.i.i2, label %66, label %64

64:                                               ; preds = %62
  %65 = add nsw i32 %53, -1
  store i32 %65, ptr %50, align 4, !tbaa !23
  br label %_ZN9__gnu_cxx27__exchange_and_add_dispatchEPii.exit.i.i.i3

66:                                               ; preds = %62
  %67 = atomicrmw volatile add ptr %50, i32 -1 acq_rel, align 4
  br label %_ZN9__gnu_cxx27__exchange_and_add_dispatchEPii.exit.i.i.i3

_ZN9__gnu_cxx27__exchange_and_add_dispatchEPii.exit.i.i.i3: ; preds = %66, %64
  %.0.i.i.i.i4 = phi i32 [ %53, %64 ], [ %67, %66 ]
  %68 = icmp eq i32 %.0.i.i.i.i4, 1
  br i1 %68, label %69, label %_ZNSt12__shared_ptrI13CvVideoWriterLN9__gnu_cxx12_Lock_policyE2EED2Ev.exit, !prof !24

69:                                               ; preds = %_ZN9__gnu_cxx27__exchange_and_add_dispatchEPii.exit.i.i.i3
  tail call void @_ZNSt16_Sp_counted_baseILN9__gnu_cxx12_Lock_policyE2EE24_M_release_last_use_coldEv(ptr noundef nonnull align 8 dereferenceable(16) %48) #27
  br label %_ZNSt12__shared_ptrI13CvVideoWriterLN9__gnu_cxx12_Lock_policyE2EED2Ev.exit

_ZNSt12__shared_ptrI13CvVideoWriterLN9__gnu_cxx12_Lock_policyE2EED2Ev.exit: ; preds = %_ZNSt12__shared_ptrIN2cv12IVideoWriterELN9__gnu_cxx12_Lock_policyE2EED2Ev.exit, %54, %_ZN9__gnu_cxx27__exchange_and_add_dispatchEPii.exit.i.i.i3, %69
  ret void
}